target datalayout = "e-m:e-p270:32:32-p271:32:32-p272:64:64-i64:64-i128:128-f80:128-n8:16:32:64-S128"
target triple = "x86_64-pc-linux-gnu"

%struct.AVRational = type { i32, i32 }
%struct.AVPacket = type { ptr, i64, i64, ptr, i32, i32, i32, ptr, i32, i64, i64, ptr, ptr, %struct.AVRational }

; Function Attrs: nounwind uwtable
define i32 @ff_cbs_read_packet(ptr noundef %0, ptr noundef %1, ptr noundef %2) #3 {
  %4 = alloca ptr, align 8
  %5 = alloca ptr, align 8
  %6 = alloca ptr, align 8
  store ptr %0, ptr %4, align 8, !tbaa !22
  store ptr %1, ptr %5, align 8, !tbaa !39
  store ptr %2, ptr %6, align 8, !tbaa !83
  %7 = load ptr, ptr %4, align 8, !tbaa !22
  %8 = load ptr, ptr %5, align 8, !tbaa !39
  %9 = load ptr, ptr %6, align 8, !tbaa !83
  %10 = getelementptr inbounds nuw %struct.AVPacket, ptr %9, i32 0, i32 0
  %11 = load ptr, ptr %10, align 8, !tbaa !85
  %12 = load ptr, ptr %6, align 8, !tbaa !83
  %13 = getelementptr inbounds nuw %struct.AVPacket, ptr %12, i32 0, i32 3
  %14 = load ptr, ptr %13, align 8, !tbaa !87
  %15 = load ptr, ptr %6, align 8, !tbaa !83
  %16 = getelementptr inbounds nuw %struct.AVPacket, ptr %15, i32 0, i32 4
  %17 = load i32, ptr %16, align 8, !tbaa !88
  %18 = sext i32 %17 to i64
  %19 = call i32 @cbs_read_data(ptr noundef %7, ptr noundef %8, ptr noundef %11, ptr noundef %14, i64 noundef %18, i32 noundef 0)
  ret i32 %19
}