; Function Attrs: nounwind uwtable
define range(i32 -2147483648, 1) i32 @ff_cbs_read_packet(ptr noundef %0, ptr noundef %1, ptr noundef readonly captures(none) %2) local_unnamed_addr #3 {
  %4 = load ptr, ptr %2, align 8, !tbaa !76
  %5 = getelementptr inbounds nuw i8, ptr %2, i64 24
  %6 = load ptr, ptr %5, align 8, !tbaa !78
  %7 = getelementptr inbounds nuw i8, ptr %2, i64 32
  %8 = load i32, ptr %7, align 8, !tbaa !79
  %9 = sext i32 %8 to i64
  %10 = tail call fastcc i32 @cbs_read_data(ptr noundef %0, ptr noundef %1, ptr noundef %4, ptr noundef %6, i64 noundef %9, i32 noundef 0)
  ret i32 %10
}